target datalayout = "e-m:e-p270:32:32-p271:32:32-p272:64:64-i64:64-i128:128-f80:128-n8:16:32:64-S128"
target triple = "x86_64-pc-linux-gnu"

%struct.block_q8_K = type { float, [256 x i8], [16 x i16] }

; Function Attrs: inlinehint nounwind uwtable
define internal i32 @nearest_int(float noundef %0) #3 {
  %2 = alloca float, align 4
  %3 = alloca float, align 4
  %4 = alloca i32, align 4
  store float %0, ptr %2, align 4, !tbaa !13
  call void @llvm.lifetime.start.p0(i64 4, ptr %3) #10
  %5 = load float, ptr %2, align 4, !tbaa !13
  %6 = fadd float %5, 0x4168000000000000
  store float %6, ptr %3, align 4, !tbaa !13
  call void @llvm.lifetime.start.p0(i64 4, ptr %4) #10
  call void @llvm.memcpy.p0.p0.i64(ptr align 4 %4, ptr align 4 %3, i64 4, i1 false)
  %7 = load i32, ptr %4, align 4, !tbaa !11
  %8 = and i32 %7, 8388607
  %9 = sub nsw i32 %8, 4194304
  call void @llvm.lifetime.end.p0(i64 4, ptr %4) #10
  call void @llvm.lifetime.end.p0(i64 4, ptr %3) #10
  ret i32 %9
}

; Function Attrs: nounwind uwtable
define void @quantize_row_q8_K_ref(ptr noalias noundef %0, ptr noalias noundef %1, i64 noundef %2) #0 {
  %4 = alloca ptr, align 8
  %5 = alloca ptr, align 8
  %6 = alloca i64, align 8
  %7 = alloca i64, align 8
  %8 = alloca i32, align 4
  %9 = alloca i32, align 4
  %10 = alloca float, align 4
  %11 = alloca float, align 4
  %12 = alloca i32, align 4
  %13 = alloca float, align 4
  %14 = alloca float, align 4
  %15 = alloca i32, align 4
  %16 = alloca i32, align 4
  %17 = alloca i32, align 4
  %18 = alloca i32, align 4
  %19 = alloca i32, align 4
  store ptr %0, ptr %4, align 8, !tbaa !3
  store ptr %1, ptr %5, align 8, !tbaa !8
  store i64 %2, ptr %6, align 8, !tbaa !9
  call void @llvm.lifetime.start.p0(i64 8, ptr %7) #10
  %20 = load i64, ptr %6, align 8, !tbaa !9
  %21 = sdiv i64 %20, 256
  store i64 %21, ptr %7, align 8, !tbaa !9
  call void @llvm.lifetime.start.p0(i64 4, ptr %8) #10
  store i32 0, ptr %8, align 4, !tbaa !11
  br label %22

22:                                               ; preds = %162, %3
  %23 = load i32, ptr %8, align 4, !tbaa !11
  %24 = sext i32 %23 to i64
  %25 = load i64, ptr %7, align 8, !tbaa !9
  %26 = icmp slt i64 %24, %25
  br i1 %26, label %28, label %27

27:                                               ; preds = %22
  store i32 2, ptr %9, align 4
  call void @llvm.lifetime.end.p0(i64 4, ptr %8) #10
  br label %165

28:                                               ; preds = %22
  call void @llvm.lifetime.start.p0(i64 4, ptr %10) #10
  store float 0.000000e+00, ptr %10, align 4, !tbaa !13
  call void @llvm.lifetime.start.p0(i64 4, ptr %11) #10
  store float 0.000000e+00, ptr %11, align 4, !tbaa !13
  call void @llvm.lifetime.start.p0(i64 4, ptr %12) #10
  store i32 0, ptr %12, align 4, !tbaa !11
  br label %29

29:                                               ; preds = %51, %28
  %30 = load i32, ptr %12, align 4, !tbaa !11
  %31 = icmp slt i32 %30, 256
  br i1 %31, label %33, label %32

32:                                               ; preds = %29
  store i32 5, ptr %9, align 4
  call void @llvm.lifetime.end.p0(i64 4, ptr %12) #10
  br label %54

33:                                               ; preds = %29
  call void @llvm.lifetime.start.p0(i64 4, ptr %13) #10
  %34 = load ptr, ptr %4, align 8, !tbaa !3
  %35 = load i32, ptr %12, align 4, !tbaa !11
  %36 = sext i32 %35 to i64
  %37 = getelementptr inbounds float, ptr %34, i64 %36
  %38 = load float, ptr %37, align 4, !tbaa !13
  %39 = call float @llvm.fabs.f32(float %38)
  store float %39, ptr %13, align 4, !tbaa !13
  %40 = load float, ptr %13, align 4, !tbaa !13
  %41 = load float, ptr %11, align 4, !tbaa !13
  %42 = fcmp ogt float %40, %41
  br i1 %42, label %43, label %50

43:                                               ; preds = %33
  %44 = load float, ptr %13, align 4, !tbaa !13
  store float %44, ptr %11, align 4, !tbaa !13
  %45 = load ptr, ptr %4, align 8, !tbaa !3
  %46 = load i32, ptr %12, align 4, !tbaa !11
  %47 = sext i32 %46 to i64
  %48 = getelementptr inbounds float, ptr %45, i64 %47
  %49 = load float, ptr %48, align 4, !tbaa !13
  store float %49, ptr %10, align 4, !tbaa !13
  br label %50

50:                                               ; preds = %43, %33
  call void @llvm.lifetime.end.p0(i64 4, ptr %13) #10
  br label %51

51:                                               ; preds = %50
  %52 = load i32, ptr %12, align 4, !tbaa !11
  %53 = add nsw i32 %52, 1
  store i32 %53, ptr %12, align 4, !tbaa !11
  br label %29, !llvm.loop !304

54:                                               ; preds = %32
  %55 = load float, ptr %11, align 4, !tbaa !13
  %56 = fcmp une float %55, 0.000000e+00
  br i1 %56, label %71, label %57

57:                                               ; preds = %54
  %58 = load ptr, ptr %5, align 8, !tbaa !8
  %59 = load i32, ptr %8, align 4, !tbaa !11
  %60 = sext i32 %59 to i64
  %61 = getelementptr inbounds %struct.block_q8_K, ptr %58, i64 %60
  %62 = getelementptr inbounds nuw %struct.block_q8_K, ptr %61, i32 0, i32 0
  store float 0.000000e+00, ptr %62, align 4, !tbaa !305
  %63 = load ptr, ptr %5, align 8, !tbaa !8
  %64 = load i32, ptr %8, align 4, !tbaa !11
  %65 = sext i32 %64 to i64
  %66 = getelementptr inbounds %struct.block_q8_K, ptr %63, i64 %65
  %67 = getelementptr inbounds nuw %struct.block_q8_K, ptr %66, i32 0, i32 1
  %68 = getelementptr inbounds [256 x i8], ptr %67, i64 0, i64 0
  call void @llvm.memset.p0.i64(ptr align 4 %68, i8 0, i64 256, i1 false)
  %69 = load ptr, ptr %4, align 8, !tbaa !3
  %70 = getelementptr inbounds float, ptr %69, i64 256
  store ptr %70, ptr %4, align 8, !tbaa !3
  store i32 4, ptr %9, align 4
  br label %159

71:                                               ; preds = %54
  call void @llvm.lifetime.start.p0(i64 4, ptr %14) #10
  %72 = load float, ptr %10, align 4, !tbaa !13
  %73 = fdiv float -1.270000e+02, %72
  store float %73, ptr %14, align 4, !tbaa !13
  call void @llvm.lifetime.start.p0(i64 4, ptr %15) #10
  store i32 0, ptr %15, align 4, !tbaa !11
  br label %74

74:                                               ; preds = %103, %71
  %75 = load i32, ptr %15, align 4, !tbaa !11
  %76 = icmp slt i32 %75, 256
  br i1 %76, label %78, label %77

77:                                               ; preds = %74
  store i32 8, ptr %9, align 4
  call void @llvm.lifetime.end.p0(i64 4, ptr %15) #10
  br label %106

78:                                               ; preds = %74
  call void @llvm.lifetime.start.p0(i64 4, ptr %16) #10
  %79 = load float, ptr %14, align 4, !tbaa !13
  %80 = load ptr, ptr %4, align 8, !tbaa !3
  %81 = load i32, ptr %15, align 4, !tbaa !11
  %82 = sext i32 %81 to i64
  %83 = getelementptr inbounds float, ptr %80, i64 %82
  %84 = load float, ptr %83, align 4, !tbaa !13
  %85 = fmul float %79, %84
  %86 = call i32 @nearest_int(float noundef %85)
  store i32 %86, ptr %16, align 4, !tbaa !11
  %87 = load i32, ptr %16, align 4, !tbaa !11
  %88 = icmp slt i32 127, %87
  br i1 %88, label %89, label %90

89:                                               ; preds = %78
  br label %92

90:                                               ; preds = %78
  %91 = load i32, ptr %16, align 4, !tbaa !11
  br label %92

92:                                               ; preds = %90, %89
  %93 = phi i32 [ 127, %89 ], [ %91, %90 ]
  %94 = trunc i32 %93 to i8
  %95 = load ptr, ptr %5, align 8, !tbaa !8
  %96 = load i32, ptr %8, align 4, !tbaa !11
  %97 = sext i32 %96 to i64
  %98 = getelementptr inbounds %struct.block_q8_K, ptr %95, i64 %97
  %99 = getelementptr inbounds nuw %struct.block_q8_K, ptr %98, i32 0, i32 1
  %100 = load i32, ptr %15, align 4, !tbaa !11
  %101 = sext i32 %100 to i64
  %102 = getelementptr inbounds [256 x i8], ptr %99, i64 0, i64 %101
  store i8 %94, ptr %102, align 1, !tbaa !20
  call void @llvm.lifetime.end.p0(i64 4, ptr %16) #10
  br label %103

103:                                              ; preds = %92
  %104 = load i32, ptr %15, align 4, !tbaa !11
  %105 = add nsw i32 %104, 1
  store i32 %105, ptr %15, align 4, !tbaa !11
  br label %74, !llvm.loop !307

106:                                              ; preds = %77
  call void @llvm.lifetime.start.p0(i64 4, ptr %17) #10
  store i32 0, ptr %17, align 4, !tbaa !11
  br label %107

107:                                              ; preds = %146, %106
  %108 = load i32, ptr %17, align 4, !tbaa !11
  %109 = icmp slt i32 %108, 16
  br i1 %109, label %111, label %110

110:                                              ; preds = %107
  store i32 11, ptr %9, align 4
  call void @llvm.lifetime.end.p0(i64 4, ptr %17) #10
  br label %149

111:                                              ; preds = %107
  call void @llvm.lifetime.start.p0(i64 4, ptr %18) #10
  store i32 0, ptr %18, align 4, !tbaa !11
  call void @llvm.lifetime.start.p0(i64 4, ptr %19) #10
  store i32 0, ptr %19, align 4, !tbaa !11
  br label %112

112:                                              ; preds = %132, %111
  %113 = load i32, ptr %19, align 4, !tbaa !11
  %114 = icmp slt i32 %113, 16
  br i1 %114, label %116, label %115

115:                                              ; preds = %112
  store i32 14, ptr %9, align 4
  call void @llvm.lifetime.end.p0(i64 4, ptr %19) #10
  br label %135

116:                                              ; preds = %112
  %117 = load ptr, ptr %5, align 8, !tbaa !8
  %118 = load i32, ptr %8, align 4, !tbaa !11
  %119 = sext i32 %118 to i64
  %120 = getelementptr inbounds %struct.block_q8_K, ptr %117, i64 %119
  %121 = getelementptr inbounds nuw %struct.block_q8_K, ptr %120, i32 0, i32 1
  %122 = load i32, ptr %17, align 4, !tbaa !11
  %123 = mul nsw i32 %122, 16
  %124 = load i32, ptr %19, align 4, !tbaa !11
  %125 = add nsw i32 %123, %124
  %126 = sext i32 %125 to i64
  %127 = getelementptr inbounds [256 x i8], ptr %121, i64 0, i64 %126
  %128 = load i8, ptr %127, align 1, !tbaa !20
  %129 = sext i8 %128 to i32
  %130 = load i32, ptr %18, align 4, !tbaa !11
  %131 = add nsw i32 %130, %129
  store i32 %131, ptr %18, align 4, !tbaa !11
  br label %132

132:                                              ; preds = %116
  %133 = load i32, ptr %19, align 4, !tbaa !11
  %134 = add nsw i32 %133, 1
  store i32 %134, ptr %19, align 4, !tbaa !11
  br label %112, !llvm.loop !308

135:                                              ; preds = %115
  %136 = load i32, ptr %18, align 4, !tbaa !11
  %137 = trunc i32 %136 to i16
  %138 = load ptr, ptr %5, align 8, !tbaa !8
  %139 = load i32, ptr %8, align 4, !tbaa !11
  %140 = sext i32 %139 to i64
  %141 = getelementptr inbounds %struct.block_q8_K, ptr %138, i64 %140
  %142 = getelementptr inbounds nuw %struct.block_q8_K, ptr %141, i32 0, i32 2
  %143 = load i32, ptr %17, align 4, !tbaa !11
  %144 = sext i32 %143 to i64
  %145 = getelementptr inbounds [16 x i16], ptr %142, i64 0, i64 %144
  store i16 %137, ptr %145, align 2, !tbaa !42
  call void @llvm.lifetime.end.p0(i64 4, ptr %18) #10
  br label %146

146:                                              ; preds = %135
  %147 = load i32, ptr %17, align 4, !tbaa !11
  %148 = add nsw i32 %147, 1
  store i32 %148, ptr %17, align 4, !tbaa !11
  br label %107, !llvm.loop !309

149:                                              ; preds = %110
  %150 = load float, ptr %14, align 4, !tbaa !13
  %151 = fdiv float 1.000000e+00, %150
  %152 = load ptr, ptr %5, align 8, !tbaa !8
  %153 = load i32, ptr %8, align 4, !tbaa !11
  %154 = sext i32 %153 to i64
  %155 = getelementptr inbounds %struct.block_q8_K, ptr %152, i64 %154
  %156 = getelementptr inbounds nuw %struct.block_q8_K, ptr %155, i32 0, i32 0
  store float %151, ptr %156, align 4, !tbaa !305
  %157 = load ptr, ptr %4, align 8, !tbaa !3
  %158 = getelementptr inbounds float, ptr %157, i64 256
  store ptr %158, ptr %4, align 8, !tbaa !3
  call void @llvm.lifetime.end.p0(i64 4, ptr %14) #10
  store i32 0, ptr %9, align 4
  br label %159

159:                                              ; preds = %149, %57
  call void @llvm.lifetime.end.p0(i64 4, ptr %11) #10
  call void @llvm.lifetime.end.p0(i64 4, ptr %10) #10
  %160 = load i32, ptr %9, align 4
  switch i32 %160, label %166 [
    i32 0, label %161
    i32 4, label %162
  ]

161:                                              ; preds = %159
  br label %162

162:                                              ; preds = %161, %159
  %163 = load i32, ptr %8, align 4, !tbaa !11
  %164 = add nsw i32 %163, 1
  store i32 %164, ptr %8, align 4, !tbaa !11
  br label %22, !llvm.loop !310

165:                                              ; preds = %27
  call void @llvm.lifetime.end.p0(i64 8, ptr %7) #10
  ret void

166:                                              ; preds = %159
  unreachable
}