; Function Attrs: nofree norecurse nosync nounwind memory(argmem: readwrite) uwtable
define void @quantize_row_q8_K_ref(ptr noalias noundef readonly captures(none) %0, ptr noalias noundef captures(none) %1, i64 noundef %2) local_unnamed_addr #0 {
  %4 = sdiv i64 %2, 256
  %5 = icmp sgt i64 %2, 255
  br i1 %5, label %.preheader59, label %._crit_edge

.preheader59:                                     ; preds = %3, %39
  %indvars.iv81 = phi i64 [ %indvars.iv.next82, %39 ], [ 0, %3 ]
  %.04868 = phi ptr [ %.1, %39 ], [ %0, %3 ]
  br label %8

._crit_edge:                                      ; preds = %39, %3
  ret void

6:                                                ; preds = %8
  %7 = fcmp une float %.153, 0.000000e+00
  br i1 %7, label %15, label %13

8:                                                ; preds = %.preheader59, %8
  %indvars.iv = phi i64 [ 0, %.preheader59 ], [ %indvars.iv.next, %8 ]
  %.05261 = phi float [ 0.000000e+00, %.preheader59 ], [ %.153, %8 ]
  %.05460 = phi float [ 0.000000e+00, %.preheader59 ], [ %.155, %8 ]
  %9 = getelementptr inbounds nuw float, ptr %.04868, i64 %indvars.iv
  %10 = load float, ptr %9, align 4, !tbaa !8
  %11 = tail call float @llvm.fabs.f32(float %10)
  %12 = fcmp ogt float %11, %.05261
  %.155 = select i1 %12, float %10, float %.05460
  %.153 = select i1 %12, float %11, float %.05261
  %indvars.iv.next = add nuw nsw i64 %indvars.iv, 1
  %exitcond.not = icmp eq i64 %indvars.iv.next, 256
  br i1 %exitcond.not, label %6, label %8, !llvm.loop !676

13:                                               ; preds = %6
  %14 = getelementptr inbounds nuw %struct.block_q8_K, ptr %1, i64 %indvars.iv81
  tail call void @llvm.memset.p0.i64(ptr noundef nonnull align 4 dereferenceable(260) %14, i8 0, i64 260, i1 false)
  br label %39

15:                                               ; preds = %6
  %16 = fdiv float -1.270000e+02, %.155
  br label %17

17:                                               ; preds = %15, %17
  %indvars.iv70 = phi i64 [ 0, %15 ], [ %indvars.iv.next71, %17 ]
  %18 = getelementptr inbounds nuw float, ptr %.04868, i64 %indvars.iv70
  %19 = load float, ptr %18, align 4, !tbaa !8
  %20 = fmul float %16, %19
  %21 = fadd float %20, 0x4168000000000000
  %22 = bitcast float %21 to i32
  %23 = and i32 %22, 8388607
  %24 = tail call i32 @llvm.umin.i32(i32 %23, i32 4194431)
  %25 = trunc i32 %24 to i8
  %26 = getelementptr inbounds nuw %struct.block_q8_K, ptr %1, i64 %indvars.iv81, i32 1, i64 %indvars.iv70
  store i8 %25, ptr %26, align 1, !tbaa !13
  %indvars.iv.next71 = add nuw nsw i64 %indvars.iv70, 1
  %exitcond73.not = icmp eq i64 %indvars.iv.next71, 256
  br i1 %exitcond73.not, label %.preheader, label %17, !llvm.loop !677

.preheader:                                       ; preds = %17, %31
  %indvars.iv77 = phi i64 [ %indvars.iv.next78, %31 ], [ 0, %17 ]
  %27 = shl nuw nsw i64 %indvars.iv77, 4
  br label %33

28:                                               ; preds = %31
  %29 = fdiv float 1.000000e+00, %16
  %30 = getelementptr inbounds nuw %struct.block_q8_K, ptr %1, i64 %indvars.iv81
  store float %29, ptr %30, align 4, !tbaa !678
  br label %39

31:                                               ; preds = %33
  %32 = getelementptr inbounds nuw %struct.block_q8_K, ptr %1, i64 %indvars.iv81, i32 2, i64 %indvars.iv77
  store i16 %38, ptr %32, align 2, !tbaa !635
  %indvars.iv.next78 = add nuw nsw i64 %indvars.iv77, 1
  %exitcond80.not = icmp eq i64 %indvars.iv.next78, 16
  br i1 %exitcond80.not, label %28, label %.preheader, !llvm.loop !680

33:                                               ; preds = %.preheader, %33
  %indvars.iv74 = phi i64 [ 0, %.preheader ], [ %indvars.iv.next75, %33 ]
  %.04664 = phi i16 [ 0, %.preheader ], [ %38, %33 ]
  %34 = add nuw nsw i64 %indvars.iv74, %27
  %35 = getelementptr inbounds nuw %struct.block_q8_K, ptr %1, i64 %indvars.iv81, i32 1, i64 %34
  %36 = load i8, ptr %35, align 1, !tbaa !13
  %37 = sext i8 %36 to i16
  %38 = add i16 %.04664, %37
  %indvars.iv.next75 = add nuw nsw i64 %indvars.iv74, 1
  %exitcond76.not = icmp eq i64 %indvars.iv.next75, 16
  br i1 %exitcond76.not, label %31, label %33, !llvm.loop !681

39:                                               ; preds = %28, %13
  %.1 = getelementptr inbounds nuw i8, ptr %.04868, i64 1024
  %indvars.iv.next82 = add nuw nsw i64 %indvars.iv81, 1
  %exitcond84.not = icmp eq i64 %indvars.iv.next82, %4
  br i1 %exitcond84.not, label %._crit_edge, label %.preheader59, !llvm.loop !682
}